; Function Attrs: nounwind uwtable
define void @_ZTv0_n24_N20FilterFunctionPluginD1Ev(ptr noundef %0) unnamed_addr #15 align 2 {
  %2 = load ptr, ptr %0, align 8
  %3 = getelementptr inbounds i8, ptr %2, i64 -24
  %4 = load i64, ptr %3, align 8
  %5 = getelementptr inbounds i8, ptr %0, i64 %4
  tail call void @_ZN20FilterFunctionPluginD2Ev(ptr noundef nonnull align 8 dereferenceable(1048) %5, ptr noundef nonnull @_ZTT20FilterFunctionPlugin) #27
  %6 = getelementptr inbounds i8, ptr %5, i64 1048
  store ptr getelementptr inbounds ({ [7 x ptr] }, ptr @_ZTV13MeshLabPlugin, i64 0, i32 0, i64 2), ptr %6, align 8
  %7 = getelementptr inbounds i8, ptr %5, i64 1064
  tail call void @_ZN9QFileInfoD1Ev(ptr noundef nonnull align 8 dereferenceable(8) %7) #27
  ret void
}